target datalayout = "e-m:e-p270:32:32-p271:32:32-p272:64:64-i64:64-i128:128-f80:128-n8:16:32:64-S128"
target triple = "x86_64-pc-linux-gnu"

%struct.epan_dissect = type { ptr, ptr, ptr, %struct._packet_info }
%struct._packet_info = type { ptr, ptr, i32, i32, %struct.nstime_t, %struct.nstime_t, %struct.nstime_t, i8, ptr, ptr, ptr, ptr, %struct._address, %struct._address, %struct._address, %struct._address, %struct._address, %struct._address, i32, ptr, i8, [3 x i8], %struct.anon, i32, i32, i32, i32, ptr, i8, ptr, ptr, i16, i16, i32, i32, i16, i32, i32, ptr, ptr, ptr, i8, i8, i16, i16, i16, i32, i16, i16, ptr, ptr, ptr, ptr, ptr, i32, i32 }
%struct.nstime_t = type { i64, i32 }
%struct._address = type { i32, i32, ptr, ptr }
%struct.anon = type { i8, [3 x i8] }
%struct._GSList = type { ptr, ptr }

@.str.29 = private unnamed_addr constant [7 x i8] c"// %s\0A\00", align 1
@.str.30 = private unnamed_addr constant [45 x i8] c"static const unsigned char pkt%u_%u[%u] = {\0A\00", align 1
@.str.31 = private unnamed_addr constant [42 x i8] c"static const unsigned char pkt%u[%u] = {\0A\00", align 1
@.str.32 = private unnamed_addr constant [7 x i8] c"0x%02x\00", align 1
@g_ascii_table = external constant ptr, align 8
@.str.33 = private unnamed_addr constant [7 x i8] c"      \00", align 1
@.str.34 = private unnamed_addr constant [15 x i8] c"  // |%s|\0A};\0A\0A\00", align 1
@.str.35 = private unnamed_addr constant [11 x i8] c", // |%s|\0A\00", align 1
@.str.36 = private unnamed_addr constant [3 x i8] c", \00", align 1

; Function Attrs: alwaysinline nounwind
define internal ptr @memset.inline(ptr %0, i32 %1, i64 %2) #8 {
  %4 = alloca ptr, align 8
  %5 = alloca i32, align 4
  %6 = alloca i64, align 8
  store ptr %0, ptr %4, align 8
  store i32 %1, ptr %5, align 4
  store i64 %2, ptr %6, align 8
  %7 = load ptr, ptr %4, align 8
  %8 = load i32, ptr %5, align 4
  %9 = load i64, ptr %6, align 8
  %10 = load ptr, ptr %4, align 8
  %11 = call i64 @llvm.objectsize.i64.p0(ptr %10, i1 false, i1 true, i1 true)
  %12 = call ptr @__memset_chk(ptr noundef %7, i32 noundef %8, i64 noundef %9, i64 noundef %11) #15
  ret ptr %12
}

; Function Attrs: null_pointer_is_valid sspstrong uwtable
define void @write_carrays_hex_data(i32 noundef %0, ptr noundef %1, ptr noundef %2) #0 {
  %4 = alloca i32, align 4
  %5 = alloca ptr, align 8
  %6 = alloca ptr, align 8
  %7 = alloca i32, align 4
  %8 = alloca i32, align 4
  %9 = alloca ptr, align 8
  %10 = alloca ptr, align 8
  %11 = alloca ptr, align 8
  %12 = alloca ptr, align 8
  %13 = alloca i32, align 4
  %14 = alloca [9 x i8], align 1
  %15 = alloca ptr, align 8
  %16 = alloca i32, align 4
  %17 = alloca i32, align 4
  store i32 %0, ptr %4, align 4
  store ptr %1, ptr %5, align 8
  store ptr %2, ptr %6, align 8
  call void @llvm.lifetime.start.p0(i64 4, ptr %7) #15
  store i32 0, ptr %7, align 4
  call void @llvm.lifetime.start.p0(i64 4, ptr %8) #15
  store i32 0, ptr %8, align 4
  call void @llvm.lifetime.start.p0(i64 8, ptr %9) #15
  call void @llvm.lifetime.start.p0(i64 8, ptr %10) #15
  call void @llvm.lifetime.start.p0(i64 8, ptr %11) #15
  call void @llvm.lifetime.start.p0(i64 8, ptr %12) #15
  call void @llvm.lifetime.start.p0(i64 4, ptr %13) #15
  call void @llvm.lifetime.start.p0(i64 9, ptr %14) #15
  call void @llvm.lifetime.start.p0(i64 8, ptr %15) #15
  %18 = load ptr, ptr %6, align 8
  %19 = getelementptr inbounds nuw %struct.epan_dissect, ptr %18, i32 0, i32 3
  %20 = getelementptr inbounds nuw %struct._packet_info, ptr %19, i32 0, i32 11
  %21 = load ptr, ptr %20, align 8
  store ptr %21, ptr %9, align 8
  br label %22

22:                                               ; preds = %153, %3
  %23 = load ptr, ptr %9, align 8
  %24 = icmp ne ptr %23, null
  br i1 %24, label %25, label %157

25:                                               ; preds = %22
  %26 = getelementptr inbounds [9 x i8], ptr %14, i64 0, i64 0
  %27 = call ptr @memset.inline(ptr noundef %26, i32 noundef 0, i64 noundef 9) #15
  %28 = load ptr, ptr %9, align 8
  %29 = getelementptr inbounds nuw %struct._GSList, ptr %28, i32 0, i32 0
  %30 = load ptr, ptr %29, align 8
  store ptr %30, ptr %15, align 8
  %31 = load ptr, ptr %15, align 8
  %32 = call ptr @get_data_source_tvb(ptr noundef %31)
  store ptr %32, ptr %10, align 8
  %33 = load ptr, ptr %10, align 8
  %34 = call i32 @tvb_captured_length(ptr noundef %33)
  store i32 %34, ptr %13, align 4
  %35 = load i32, ptr %13, align 4
  %36 = icmp eq i32 %35, 0
  br i1 %36, label %37, label %38

37:                                               ; preds = %25
  br label %153

38:                                               ; preds = %25
  %39 = load ptr, ptr %10, align 8
  %40 = load i32, ptr %13, align 4
  %41 = call ptr @tvb_get_ptr(ptr noundef %39, i32 noundef 0, i32 noundef %40)
  store ptr %41, ptr %12, align 8
  %42 = load ptr, ptr %15, align 8
  %43 = call ptr @get_data_source_name(ptr noundef %42)
  store ptr %43, ptr %11, align 8
  %44 = load ptr, ptr %11, align 8
  %45 = icmp ne ptr %44, null
  br i1 %45, label %46, label %51

46:                                               ; preds = %38
  %47 = load ptr, ptr %5, align 8
  %48 = load ptr, ptr %11, align 8
  %49 = call i32 (ptr, i32, ptr, ...) @__fprintf_chk(ptr noundef %47, i32 noundef 2, ptr noundef @.str.29, ptr noundef %48)
  %50 = load ptr, ptr %11, align 8
  call void @wmem_free(ptr noundef null, ptr noundef %50)
  br label %51

51:                                               ; preds = %46, %38
  %52 = load i32, ptr %8, align 4
  %53 = icmp ne i32 %52, 0
  br i1 %53, label %54, label %60

54:                                               ; preds = %51
  %55 = load ptr, ptr %5, align 8
  %56 = load i32, ptr %4, align 4
  %57 = load i32, ptr %8, align 4
  %58 = load i32, ptr %13, align 4
  %59 = call i32 (ptr, i32, ptr, ...) @__fprintf_chk(ptr noundef %55, i32 noundef 2, ptr noundef @.str.30, i32 noundef %56, i32 noundef %57, i32 noundef %58)
  br label %65

60:                                               ; preds = %51
  %61 = load ptr, ptr %5, align 8
  %62 = load i32, ptr %4, align 4
  %63 = load i32, ptr %13, align 4
  %64 = call i32 (ptr, i32, ptr, ...) @__fprintf_chk(ptr noundef %61, i32 noundef 2, ptr noundef @.str.31, i32 noundef %62, i32 noundef %63)
  br label %65

65:                                               ; preds = %60, %54
  %66 = load i32, ptr %8, align 4
  %67 = add i32 %66, 1
  store i32 %67, ptr %8, align 4
  store i32 0, ptr %7, align 4
  br label %68

68:                                               ; preds = %149, %65
  %69 = load i32, ptr %7, align 4
  %70 = load i32, ptr %13, align 4
  %71 = icmp ult i32 %69, %70
  br i1 %71, label %72, label %152

72:                                               ; preds = %68
  %73 = load ptr, ptr %5, align 8
  %74 = load ptr, ptr %12, align 8
  %75 = load i32, ptr %7, align 4
  %76 = zext i32 %75 to i64
  %77 = getelementptr i8, ptr %74, i64 %76
  %78 = load i8, ptr %77, align 1
  %79 = zext i8 %78 to i32
  %80 = call i32 (ptr, i32, ptr, ...) @__fprintf_chk(ptr noundef %73, i32 noundef 2, ptr noundef @.str.32, i32 noundef %79)
  %81 = load ptr, ptr @g_ascii_table, align 8
  %82 = load ptr, ptr %12, align 8
  %83 = load i32, ptr %7, align 4
  %84 = zext i32 %83 to i64
  %85 = getelementptr i8, ptr %82, i64 %84
  %86 = load i8, ptr %85, align 1
  %87 = zext i8 %86 to i64
  %88 = getelementptr i16, ptr %81, i64 %87
  %89 = load i16, ptr %88, align 2
  %90 = zext i16 %89 to i32
  %91 = and i32 %90, 64
  %92 = icmp ne i32 %91, 0
  br i1 %92, label %93, label %100

93:                                               ; preds = %72
  %94 = load ptr, ptr %12, align 8
  %95 = load i32, ptr %7, align 4
  %96 = zext i32 %95 to i64
  %97 = getelementptr i8, ptr %94, i64 %96
  %98 = load i8, ptr %97, align 1
  %99 = zext i8 %98 to i32
  br label %101

100:                                              ; preds = %72
  br label %101

101:                                              ; preds = %100, %93
  %102 = phi i32 [ %99, %93 ], [ 46, %100 ]
  %103 = trunc i32 %102 to i8
  %104 = load i32, ptr %7, align 4
  %105 = urem i32 %104, 8
  %106 = zext i32 %105 to i64
  %107 = getelementptr [9 x i8], ptr %14, i64 0, i64 %106
  store i8 %103, ptr %107, align 1
  %108 = load i32, ptr %7, align 4
  %109 = load i32, ptr %13, align 4
  %110 = sub i32 %109, 1
  %111 = icmp eq i32 %108, %110
  br i1 %111, label %112, label %134

112:                                              ; preds = %101
  call void @llvm.lifetime.start.p0(i64 4, ptr %16) #15
  %113 = load i32, ptr %13, align 4
  %114 = urem i32 %113, 8
  store i32 %114, ptr %16, align 4
  %115 = load i32, ptr %16, align 4
  %116 = icmp ne i32 %115, 0
  br i1 %116, label %117, label %130

117:                                              ; preds = %112
  call void @llvm.lifetime.start.p0(i64 4, ptr %17) #15
  store i32 0, ptr %17, align 4
  br label %118

118:                                              ; preds = %126, %117
  %119 = load i32, ptr %17, align 4
  %120 = load i32, ptr %16, align 4
  %121 = sub i32 8, %120
  %122 = icmp ult i32 %119, %121
  br i1 %122, label %123, label %129

123:                                              ; preds = %118
  %124 = load ptr, ptr %5, align 8
  %125 = call i32 (ptr, i32, ptr, ...) @__fprintf_chk(ptr noundef %124, i32 noundef 2, ptr noundef @.str.33)
  br label %126

126:                                              ; preds = %123
  %127 = load i32, ptr %17, align 4
  %128 = add i32 %127, 1
  store i32 %128, ptr %17, align 4
  br label %118, !llvm.loop !29

129:                                              ; preds = %118
  call void @llvm.lifetime.end.p0(i64 4, ptr %17) #15
  br label %130

130:                                              ; preds = %129, %112
  %131 = load ptr, ptr %5, align 8
  %132 = getelementptr inbounds [9 x i8], ptr %14, i64 0, i64 0
  %133 = call i32 (ptr, i32, ptr, ...) @__fprintf_chk(ptr noundef %131, i32 noundef 2, ptr noundef @.str.34, ptr noundef %132)
  call void @llvm.lifetime.end.p0(i64 4, ptr %16) #15
  br label %152

134:                                              ; preds = %101
  %135 = load i32, ptr %7, align 4
  %136 = add i32 %135, 1
  %137 = urem i32 %136, 8
  %138 = icmp ne i32 %137, 0
  br i1 %138, label %145, label %139

139:                                              ; preds = %134
  %140 = load ptr, ptr %5, align 8
  %141 = getelementptr inbounds [9 x i8], ptr %14, i64 0, i64 0
  %142 = call i32 (ptr, i32, ptr, ...) @__fprintf_chk(ptr noundef %140, i32 noundef 2, ptr noundef @.str.35, ptr noundef %141)
  %143 = getelementptr inbounds [9 x i8], ptr %14, i64 0, i64 0
  %144 = call ptr @memset.inline(ptr noundef %143, i32 noundef 0, i64 noundef 9) #15
  br label %148

145:                                              ; preds = %134
  %146 = load ptr, ptr %5, align 8
  %147 = call i32 (ptr, i32, ptr, ...) @__fprintf_chk(ptr noundef %146, i32 noundef 2, ptr noundef @.str.36)
  br label %148

148:                                              ; preds = %145, %139
  br label %149

149:                                              ; preds = %148
  %150 = load i32, ptr %7, align 4
  %151 = add i32 %150, 1
  store i32 %151, ptr %7, align 4
  br label %68, !llvm.loop !30

152:                                              ; preds = %130, %68
  br label %153

153:                                              ; preds = %152, %37
  %154 = load ptr, ptr %9, align 8
  %155 = getelementptr inbounds nuw %struct._GSList, ptr %154, i32 0, i32 1
  %156 = load ptr, ptr %155, align 8
  store ptr %156, ptr %9, align 8
  br label %22, !llvm.loop !31

157:                                              ; preds = %22
  call void @llvm.lifetime.end.p0(i64 8, ptr %15) #15
  call void @llvm.lifetime.end.p0(i64 9, ptr %14) #15
  call void @llvm.lifetime.end.p0(i64 4, ptr %13) #15
  call void @llvm.lifetime.end.p0(i64 8, ptr %12) #15
  call void @llvm.lifetime.end.p0(i64 8, ptr %11) #15
  call void @llvm.lifetime.end.p0(i64 8, ptr %10) #15
  call void @llvm.lifetime.end.p0(i64 8, ptr %9) #15
  call void @llvm.lifetime.end.p0(i64 4, ptr %8) #15
  call void @llvm.lifetime.end.p0(i64 4, ptr %7) #15
  ret void
}