; Function Attrs: null_pointer_is_valid sspstrong uwtable
define void @write_carrays_hex_data(i32 noundef %0, ptr noundef %1, ptr noundef readonly captures(none) %2) local_unnamed_addr #0 {
  %4 = alloca [9 x i8], align 1
  call void @llvm.lifetime.start.p0(i64 9, ptr nonnull %4) #21
  %5 = getelementptr inbounds nuw i8, ptr %2, i64 128
  %.04759 = load ptr, ptr %5, align 8
  %.not60 = icmp eq ptr %.04759, null
  br i1 %.not60, label %._crit_edge, label %.lr.ph

.lr.ph:                                           ; preds = %3
  %6 = load ptr, ptr @g_ascii_table, align 8
  br label %7

7:                                                ; preds = %.lr.ph, %.loopexit56
  %.04762 = phi ptr [ %.04759, %.lr.ph ], [ %.047, %.loopexit56 ]
  %.04661 = phi i32 [ 0, %.lr.ph ], [ %.1, %.loopexit56 ]
  call void @llvm.memset.p0.i64(ptr noundef nonnull align 1 dereferenceable(9) %4, i8 noundef 0, i64 noundef 9, i1 noundef false) #21
  %8 = load ptr, ptr %.04762, align 8
  %9 = call ptr @get_data_source_tvb(ptr noundef %8)
  %10 = call i32 @tvb_captured_length(ptr noundef %9)
  %11 = icmp eq i32 %10, 0
  br i1 %11, label %.loopexit56, label %12

12:                                               ; preds = %7
  %13 = call ptr @tvb_get_ptr(ptr noundef %9, i32 noundef 0, i32 noundef %10)
  %14 = call ptr @get_data_source_name(ptr noundef %8)
  %.not51 = icmp eq ptr %14, null
  br i1 %.not51, label %17, label %15

15:                                               ; preds = %12
  %16 = call i32 (ptr, i32, ptr, ...) @__fprintf_chk(ptr noundef %1, i32 noundef 2, ptr noundef nonnull @.str.29, ptr noundef nonnull %14)
  call void @wmem_free(ptr noundef null, ptr noundef nonnull %14)
  br label %17

17:                                               ; preds = %15, %12
  %.not52 = icmp eq i32 %.04661, 0
  br i1 %.not52, label %20, label %18

18:                                               ; preds = %17
  %19 = call i32 (ptr, i32, ptr, ...) @__fprintf_chk(ptr noundef %1, i32 noundef 2, ptr noundef nonnull @.str.30, i32 noundef %0, i32 noundef %.04661, i32 noundef %10)
  br label %22

20:                                               ; preds = %17
  %21 = call i32 (ptr, i32, ptr, ...) @__fprintf_chk(ptr noundef %1, i32 noundef 2, ptr noundef nonnull @.str.31, i32 noundef %0, i32 noundef %10)
  br label %22

22:                                               ; preds = %20, %18
  %23 = add i32 %.04661, 1
  %24 = add i32 %10, -1
  %25 = zext i32 %24 to i64
  %wide.trip.count = zext i32 %10 to i64
  br label %26

26:                                               ; preds = %22, %52
  %indvars.iv = phi i64 [ 0, %22 ], [ %indvars.iv.next, %52 ]
  %27 = getelementptr i8, ptr %13, i64 %indvars.iv
  %28 = load i8, ptr %27, align 1
  %29 = zext i8 %28 to i32
  %30 = call i32 (ptr, i32, ptr, ...) @__fprintf_chk(ptr noundef %1, i32 noundef 2, ptr noundef nonnull @.str.32, i32 noundef %29)
  %31 = load i8, ptr %27, align 1
  %32 = zext i8 %31 to i64
  %33 = getelementptr i16, ptr %6, i64 %32
  %34 = load i16, ptr %33, align 2
  %35 = and i16 %34, 64
  %.not53 = icmp eq i16 %35, 0
  %spec.select = select i1 %.not53, i8 46, i8 %31
  %36 = and i64 %indvars.iv, 7
  %37 = getelementptr [9 x i8], ptr %4, i64 0, i64 %36
  store i8 %spec.select, ptr %37, align 1
  %38 = icmp eq i64 %indvars.iv, %25
  br i1 %38, label %39, label %46

39:                                               ; preds = %26
  %40 = and i32 %10, 7
  %.not55 = icmp eq i32 %40, 0
  br i1 %.not55, label %.loopexit, label %.preheader

.preheader:                                       ; preds = %39
  %41 = sub nuw nsw i32 8, %40
  br label %42

42:                                               ; preds = %.preheader, %42
  %.058 = phi i32 [ 0, %.preheader ], [ %44, %42 ]
  %43 = call i32 (ptr, i32, ptr, ...) @__fprintf_chk(ptr noundef %1, i32 noundef 2, ptr noundef nonnull @.str.33)
  %44 = add nuw nsw i32 %.058, 1
  %exitcond64.not = icmp eq i32 %44, %41
  br i1 %exitcond64.not, label %.loopexit, label %42, !llvm.loop !34

.loopexit:                                        ; preds = %42, %39
  %45 = call i32 (ptr, i32, ptr, ...) @__fprintf_chk(ptr noundef %1, i32 noundef 2, ptr noundef nonnull @.str.34, ptr noundef nonnull %4)
  br label %.loopexit56

46:                                               ; preds = %26
  %indvars.iv.next = add nuw nsw i64 %indvars.iv, 1
  %47 = and i64 %indvars.iv.next, 7
  %.not54 = icmp eq i64 %47, 0
  br i1 %.not54, label %48, label %50

48:                                               ; preds = %46
  %49 = call i32 (ptr, i32, ptr, ...) @__fprintf_chk(ptr noundef %1, i32 noundef 2, ptr noundef nonnull @.str.35, ptr noundef nonnull %4)
  call void @llvm.memset.p0.i64(ptr noundef nonnull align 1 dereferenceable(9) %4, i8 noundef 0, i64 noundef 9, i1 noundef false) #21
  br label %52

50:                                               ; preds = %46
  %51 = call i32 (ptr, i32, ptr, ...) @__fprintf_chk(ptr noundef %1, i32 noundef 2, ptr noundef nonnull @.str.36)
  br label %52

52:                                               ; preds = %48, %50
  %exitcond.not = icmp eq i64 %indvars.iv.next, %wide.trip.count
  br i1 %exitcond.not, label %.loopexit56, label %26, !llvm.loop !35

.loopexit56:                                      ; preds = %52, %.loopexit, %7
  %.1 = phi i32 [ %.04661, %7 ], [ %23, %.loopexit ], [ %23, %52 ]
  %53 = getelementptr inbounds nuw i8, ptr %.04762, i64 8
  %.047 = load ptr, ptr %53, align 8
  %.not = icmp eq ptr %.047, null
  br i1 %.not, label %._crit_edge, label %7, !llvm.loop !36

._crit_edge:                                      ; preds = %.loopexit56, %3
  call void @llvm.lifetime.end.p0(i64 9, ptr nonnull %4) #21
  ret void
}